; Function Attrs: mustprogress uwtable
define hidden noundef i32 @_ZN4cvc58internal13preprocessing6passes22PseudoBooleanProcessor13applyInternalEPNS1_17AssertionPipelineE(ptr noundef nonnull align 8 dereferenceable(624) %0, ptr noundef %1) unnamed_addr #3 align 2 {
  %3 = getelementptr inbounds nuw i8, ptr %1, i64 32
  tail call void @_ZN4cvc58internal13preprocessing6passes22PseudoBooleanProcessor5learnERKSt6vectorINS0_12NodeTemplateILb1EEESaIS6_EE(ptr noundef nonnull align 8 dereferenceable(624) %0, ptr noundef nonnull align 8 dereferenceable(24) %3)
  %4 = getelementptr inbounds nuw i8, ptr %0, i64 528
  %5 = load i32, ptr %4, align 8, !tbaa !62
  %6 = icmp ugt i32 %5, 99
  br i1 %6, label %7, label %8

7:                                                ; preds = %2
  tail call void @_ZN4cvc58internal13preprocessing6passes22PseudoBooleanProcessor17applyReplacementsEPNS1_17AssertionPipelineE(ptr noundef nonnull align 8 dereferenceable(624) %0, ptr noundef nonnull %1)
  br label %8

8:                                                ; preds = %7, %2
  ret i32 1
}